; ModuleID = 'source-C-CXX/53/68.c'
source_filename = "source-C-CXX/53/68.c"
target datalayout = "e-m:e-p270:32:32-p271:32:32-p272:64:64-i64:64-f80:128-n8:16:32:64-S128"
target triple = "x86_64-pc-linux-gnu"

@.str = private unnamed_addr constant [5 x i8] c"%d%d\00", align 1
@.str.2 = private unnamed_addr constant [3 x i8] c"%d\00", align 1

; Function Attrs: nofree nounwind sspstrong uwtable
define dso_local void @main() local_unnamed_addr #0 {
  %1 = alloca i32, align 4
  %2 = alloca i32, align 4
  %3 = bitcast i32* %1 to i8*
  call void @llvm.lifetime.start.p0i8(i64 4, i8* nonnull %3) #5
  %4 = bitcast i32* %2 to i8*
  call void @llvm.lifetime.start.p0i8(i64 4, i8* nonnull %4) #5
  %5 = call i32 (i8*, ...) @__isoc99_scanf(i8* getelementptr inbounds ([5 x i8], [5 x i8]* @.str, i64 0, i64 0), i32* nonnull %1, i32* nonnull %2)
  %6 = load i32, i32* %1, align 4, !tbaa !5
  %7 = icmp slt i32 %6, 1
  br i1 %7, label %80, label %8

8:                                                ; preds = %0
  %9 = icmp ult i32 %6, 8
  br i1 %9, label %66, label %10

10:                                               ; preds = %8
  %11 = and i32 %6, -8
  %12 = or i32 %11, 1
  %13 = insertelement <4 x i32> poison, i32 %6, i32 0
  %14 = shufflevector <4 x i32> %13, <4 x i32> poison, <4 x i32> zeroinitializer
  %15 = insertelement <4 x i32> poison, i32 %6, i32 0
  %16 = shufflevector <4 x i32> %15, <4 x i32> poison, <4 x i32> zeroinitializer
  %17 = add i32 %11, -8
  %18 = lshr exact i32 %17, 3
  %19 = add nuw nsw i32 %18, 1
  %20 = and i32 %19, 7
  %21 = icmp ult i32 %17, 56
  br i1 %21, label %46, label %22

22:                                               ; preds = %10
  %23 = and i32 %19, 1073741816
  br label %24

24:                                               ; preds = %24, %22
  %25 = phi <4 x i32> [ <i32 1, i32 1, i32 1, i32 1>, %22 ], [ %42, %24 ]
  %26 = phi <4 x i32> [ <i32 1, i32 1, i32 1, i32 1>, %22 ], [ %43, %24 ]
  %27 = phi i32 [ %23, %22 ], [ %44, %24 ]
  %28 = mul <4 x i32> %25, %14
  %29 = mul <4 x i32> %26, %16
  %30 = mul <4 x i32> %28, %14
  %31 = mul <4 x i32> %29, %16
  %32 = mul <4 x i32> %30, %14
  %33 = mul <4 x i32> %31, %16
  %34 = mul <4 x i32> %32, %14
  %35 = mul <4 x i32> %33, %16
  %36 = mul <4 x i32> %34, %14
  %37 = mul <4 x i32> %35, %16
  %38 = mul <4 x i32> %36, %14
  %39 = mul <4 x i32> %37, %16
  %40 = mul <4 x i32> %38, %14
  %41 = mul <4 x i32> %39, %16
  %42 = mul <4 x i32> %40, %14
  %43 = mul <4 x i32> %41, %16
  %44 = add i32 %27, -8
  %45 = icmp eq i32 %44, 0
  br i1 %45, label %46, label %24, !llvm.loop !9

46:                                               ; preds = %24, %10
  %47 = phi <4 x i32> [ undef, %10 ], [ %42, %24 ]
  %48 = phi <4 x i32> [ undef, %10 ], [ %43, %24 ]
  %49 = phi <4 x i32> [ <i32 1, i32 1, i32 1, i32 1>, %10 ], [ %42, %24 ]
  %50 = phi <4 x i32> [ <i32 1, i32 1, i32 1, i32 1>, %10 ], [ %43, %24 ]
  %51 = icmp eq i32 %20, 0
  br i1 %51, label %60, label %52

52:                                               ; preds = %46, %52
  %53 = phi <4 x i32> [ %56, %52 ], [ %49, %46 ]
  %54 = phi <4 x i32> [ %57, %52 ], [ %50, %46 ]
  %55 = phi i32 [ %58, %52 ], [ %20, %46 ]
  %56 = mul <4 x i32> %53, %14
  %57 = mul <4 x i32> %54, %16
  %58 = add i32 %55, -1
  %59 = icmp eq i32 %58, 0
  br i1 %59, label %60, label %52, !llvm.loop !12

60:                                               ; preds = %52, %46
  %61 = phi <4 x i32> [ %47, %46 ], [ %56, %52 ]
  %62 = phi <4 x i32> [ %48, %46 ], [ %57, %52 ]
  %63 = mul <4 x i32> %62, %61
  %64 = call i32 @llvm.vector.reduce.mul.v4i32(<4 x i32> %63)
  %65 = icmp eq i32 %6, %11
  br i1 %65, label %75, label %66

66:                                               ; preds = %8, %60
  %67 = phi i32 [ 1, %8 ], [ %12, %60 ]
  %68 = phi i32 [ 1, %8 ], [ %64, %60 ]
  br label %69

69:                                               ; preds = %66, %69
  %70 = phi i32 [ %73, %69 ], [ %67, %66 ]
  %71 = phi i32 [ %72, %69 ], [ %68, %66 ]
  %72 = mul nsw i32 %71, %6
  %73 = add nuw i32 %70, 1
  %74 = icmp eq i32 %70, %6
  br i1 %74, label %75, label %69, !llvm.loop !14

75:                                               ; preds = %69, %60
  %76 = phi i32 [ %64, %60 ], [ %72, %69 ]
  %77 = icmp eq i32 %6, 2
  br i1 %77, label %78, label %80

78:                                               ; preds = %75
  %79 = call i32 @putchar(i32 55)
  br label %87

80:                                               ; preds = %0, %75
  %81 = phi i32 [ %76, %75 ], [ 1, %0 ]
  %82 = load i32, i32* %2, align 4, !tbaa !5
  %83 = mul nsw i32 %82, %6
  %84 = add i32 %82, %81
  %85 = sub i32 %84, %83
  %86 = call i32 (i8*, ...) @printf(i8* nonnull dereferenceable(1) getelementptr inbounds ([3 x i8], [3 x i8]* @.str.2, i64 0, i64 0), i32 %85)
  br label %87

87:                                               ; preds = %80, %78
  call void @llvm.lifetime.end.p0i8(i64 4, i8* nonnull %4) #5
  call void @llvm.lifetime.end.p0i8(i64 4, i8* nonnull %3) #5
  ret void
}

; Function Attrs: argmemonly mustprogress nofree nosync nounwind willreturn
declare void @llvm.lifetime.start.p0i8(i64 immarg, i8* nocapture) #1

; Function Attrs: nofree nounwind
declare noundef i32 @__isoc99_scanf(i8* nocapture noundef readonly, ...) local_unnamed_addr #2

; Function Attrs: nofree nounwind
declare noundef i32 @printf(i8* nocapture noundef readonly, ...) local_unnamed_addr #2

; Function Attrs: argmemonly mustprogress nofree nosync nounwind willreturn
declare void @llvm.lifetime.end.p0i8(i64 immarg, i8* nocapture) #1

; Function Attrs: nofree nounwind
declare noundef i32 @putchar(i32 noundef) local_unnamed_addr #3

; Function Attrs: nofree nosync nounwind readnone willreturn
declare i32 @llvm.vector.reduce.mul.v4i32(<4 x i32>) #4


!llvm.module.flags = !{!0, !1, !2, !3}
!llvm.ident = !{!4}

!0 = !{i32 1, !"wchar_size", i32 4}
!1 = !{i32 7, !"PIC Level", i32 2}
!2 = !{i32 7, !"PIE Level", i32 2}
!3 = !{i32 7, !"uwtable", i32 1}
!4 = !{!"clang version 13.0.0"}
!5 = !{!6, !6, i64 0}
!6 = !{!"int", !7, i64 0}
!7 = !{!"omnipotent char", !8, i64 0}
!8 = !{!"Simple C/C++ TBAA"}
!9 = distinct !{!9, !10, !11}
!10 = !{!"llvm.loop.mustprogress"}
!11 = !{!"llvm.loop.isvectorized", i32 1}
!12 = distinct !{!12, !13}
!13 = !{!"llvm.loop.unroll.disable"}
!14 = distinct !{!14, !10, !15, !11}
!15 = !{!"llvm.loop.unroll.runtime.disable"}
